; ModuleID = '7/1023.c'
source_filename = "7/1023.c"
target datalayout = "e-m:e-p270:32:32-p271:32:32-p272:64:64-i64:64-f80:128-n8:16:32:64-S128"
target triple = "x86_64-pc-linux-gnu"

@.str = private unnamed_addr constant [3 x i8] c"%s\00", align 1
@.str.1 = private unnamed_addr constant [3 x i8] c"%c\00", align 1
@.str.2 = private unnamed_addr constant [2 x i8] c"\0A\00", align 1

; Function Attrs: noinline nounwind uwtable
define dso_local i32 @main() #0 {
  %1 = alloca i32, align 4
  %2 = alloca [256 x i8], align 16
  %3 = alloca [256 x i8], align 16
  %4 = alloca [256 x i8], align 16
  %5 = alloca [256 x i8], align 16
  %6 = alloca i32, align 4
  %7 = alloca i32, align 4
  %8 = alloca i32, align 4
  %9 = alloca i32, align 4
  %10 = alloca i32, align 4
  %11 = alloca i32, align 4
  %12 = alloca i32, align 4
  store i32 0, i32* %1, align 4
  %13 = call i32 (i8*, ...) @__isoc99_scanf(i8* getelementptr inbounds ([3 x i8], [3 x i8]* @.str, i64 0, i64 0), [256 x i8]* %2)
  %14 = call i32 (i8*, ...) @__isoc99_scanf(i8* getelementptr inbounds ([3 x i8], [3 x i8]* @.str, i64 0, i64 0), [256 x i8]* %3)
  %15 = call i32 (i8*, ...) @__isoc99_scanf(i8* getelementptr inbounds ([3 x i8], [3 x i8]* @.str, i64 0, i64 0), [256 x i8]* %4)
  store i32 0, i32* %12, align 4
  br label %16

16:                                               ; preds = %23, %0
  %17 = load i32, i32* %12, align 4
  %18 = sext i32 %17 to i64
  %19 = getelementptr inbounds [256 x i8], [256 x i8]* %2, i64 0, i64 %18
  %20 = load i8, i8* %19, align 1
  %21 = sext i8 %20 to i32
  %22 = icmp ne i32 %21, 0
  br i1 %22, label %23, label %26

23:                                               ; preds = %16
  %24 = load i32, i32* %12, align 4
  %25 = add nsw i32 %24, 1
  store i32 %25, i32* %12, align 4
  br label %16

26:                                               ; preds = %16
  store i32 0, i32* %7, align 4
  br label %27

27:                                               ; preds = %34, %26
  %28 = load i32, i32* %7, align 4
  %29 = sext i32 %28 to i64
  %30 = getelementptr inbounds [256 x i8], [256 x i8]* %3, i64 0, i64 %29
  %31 = load i8, i8* %30, align 1
  %32 = sext i8 %31 to i32
  %33 = icmp ne i32 %32, 0
  br i1 %33, label %34, label %37

34:                                               ; preds = %27
  %35 = load i32, i32* %7, align 4
  %36 = add nsw i32 %35, 1
  store i32 %36, i32* %7, align 4
  br label %27

37:                                               ; preds = %27
  store i32 0, i32* %6, align 4
  br label %38

38:                                               ; preds = %45, %37
  %39 = load i32, i32* %6, align 4
  %40 = sext i32 %39 to i64
  %41 = getelementptr inbounds [256 x i8], [256 x i8]* %4, i64 0, i64 %40
  %42 = load i8, i8* %41, align 1
  %43 = sext i8 %42 to i32
  %44 = icmp ne i32 %43, 0
  br i1 %44, label %45, label %48

45:                                               ; preds = %38
  %46 = load i32, i32* %6, align 4
  %47 = add nsw i32 %46, 1
  store i32 %47, i32* %6, align 4
  br label %38

48:                                               ; preds = %38
  store i32 0, i32* %8, align 4
  br label %49

49:                                               ; preds = %83, %48
  %50 = load i32, i32* %8, align 4
  %51 = load i32, i32* %12, align 4
  %52 = icmp slt i32 %50, %51
  br i1 %52, label %53, label %86

53:                                               ; preds = %49
  store i32 1, i32* %10, align 4
  store i32 0, i32* %9, align 4
  br label %54

54:                                               ; preds = %74, %53
  %55 = load i32, i32* %9, align 4
  %56 = load i32, i32* %7, align 4
  %57 = icmp slt i32 %55, %56
  br i1 %57, label %58, label %77

58:                                               ; preds = %54
  %59 = load i32, i32* %8, align 4
  %60 = load i32, i32* %9, align 4
  %61 = add nsw i32 %59, %60
  %62 = sext i32 %61 to i64
  %63 = getelementptr inbounds [256 x i8], [256 x i8]* %2, i64 0, i64 %62
  %64 = load i8, i8* %63, align 1
  %65 = sext i8 %64 to i32
  %66 = load i32, i32* %9, align 4
  %67 = sext i32 %66 to i64
  %68 = getelementptr inbounds [256 x i8], [256 x i8]* %3, i64 0, i64 %67
  %69 = load i8, i8* %68, align 1
  %70 = sext i8 %69 to i32
  %71 = icmp ne i32 %65, %70
  br i1 %71, label %72, label %73

72:                                               ; preds = %58
  store i32 0, i32* %10, align 4
  br label %77

73:                                               ; preds = %58
  br label %74

74:                                               ; preds = %73
  %75 = load i32, i32* %9, align 4
  %76 = add nsw i32 %75, 1
  store i32 %76, i32* %9, align 4
  br label %54

77:                                               ; preds = %72, %54
  %78 = load i32, i32* %10, align 4
  %79 = icmp eq i32 %78, 1
  br i1 %79, label %80, label %82

80:                                               ; preds = %77
  %81 = load i32, i32* %8, align 4
  store i32 %81, i32* %11, align 4
  br label %86

82:                                               ; preds = %77
  br label %83

83:                                               ; preds = %82
  %84 = load i32, i32* %8, align 4
  %85 = add nsw i32 %84, 1
  store i32 %85, i32* %8, align 4
  br label %49

86:                                               ; preds = %80, %49
  %87 = load i32, i32* %10, align 4
  %88 = icmp eq i32 %87, 1
  br i1 %88, label %89, label %169

89:                                               ; preds = %86
  %90 = load i32, i32* %11, align 4
  %91 = load i32, i32* %7, align 4
  %92 = add nsw i32 %90, %91
  %93 = sub nsw i32 %92, 1
  store i32 %93, i32* %8, align 4
  br label %94

94:                                               ; preds = %109, %89
  %95 = load i32, i32* %8, align 4
  %96 = sext i32 %95 to i64
  %97 = getelementptr inbounds [256 x i8], [256 x i8]* %2, i64 0, i64 %96
  %98 = load i8, i8* %97, align 1
  %99 = sext i8 %98 to i32
  %100 = icmp ne i32 %99, 0
  br i1 %100, label %101, label %112

101:                                              ; preds = %94
  %102 = load i32, i32* %8, align 4
  %103 = sext i32 %102 to i64
  %104 = getelementptr inbounds [256 x i8], [256 x i8]* %2, i64 0, i64 %103
  %105 = load i8, i8* %104, align 1
  %106 = load i32, i32* %8, align 4
  %107 = sext i32 %106 to i64
  %108 = getelementptr inbounds [256 x i8], [256 x i8]* %5, i64 0, i64 %107
  store i8 %105, i8* %108, align 1
  br label %109

109:                                              ; preds = %101
  %110 = load i32, i32* %8, align 4
  %111 = add nsw i32 %110, 1
  store i32 %111, i32* %8, align 4
  br label %94

112:                                              ; preds = %94
  %113 = load i32, i32* %8, align 4
  %114 = add nsw i32 %113, 1
  %115 = sext i32 %114 to i64
  %116 = getelementptr inbounds [256 x i8], [256 x i8]* %5, i64 0, i64 %115
  store i8 0, i8* %116, align 1
  store i32 0, i32* %8, align 4
  br label %117

117:                                              ; preds = %131, %112
  %118 = load i32, i32* %8, align 4
  %119 = load i32, i32* %6, align 4
  %120 = icmp slt i32 %118, %119
  br i1 %120, label %121, label %134

121:                                              ; preds = %117
  %122 = load i32, i32* %8, align 4
  %123 = sext i32 %122 to i64
  %124 = getelementptr inbounds [256 x i8], [256 x i8]* %4, i64 0, i64 %123
  %125 = load i8, i8* %124, align 1
  %126 = load i32, i32* %11, align 4
  %127 = load i32, i32* %8, align 4
  %128 = add nsw i32 %126, %127
  %129 = sext i32 %128 to i64
  %130 = getelementptr inbounds [256 x i8], [256 x i8]* %2, i64 0, i64 %129
  store i8 %125, i8* %130, align 1
  br label %131

131:                                              ; preds = %121
  %132 = load i32, i32* %8, align 4
  %133 = add nsw i32 %132, 1
  store i32 %133, i32* %8, align 4
  br label %117

134:                                              ; preds = %117
  %135 = load i32, i32* %11, align 4
  %136 = load i32, i32* %6, align 4
  %137 = add nsw i32 %135, %136
  store i32 %137, i32* %8, align 4
  br label %138

138:                                              ; preds = %161, %134
  %139 = load i32, i32* %8, align 4
  %140 = load i32, i32* %6, align 4
  %141 = sub nsw i32 %139, %140
  %142 = load i32, i32* %7, align 4
  %143 = add nsw i32 %141, %142
  %144 = sext i32 %143 to i64
  %145 = getelementptr inbounds [256 x i8], [256 x i8]* %5, i64 0, i64 %144
  %146 = load i8, i8* %145, align 1
  %147 = sext i8 %146 to i32
  %148 = icmp ne i32 %147, 0
  br i1 %148, label %149, label %164

149:                                              ; preds = %138
  %150 = load i32, i32* %8, align 4
  %151 = load i32, i32* %6, align 4
  %152 = sub nsw i32 %150, %151
  %153 = load i32, i32* %7, align 4
  %154 = add nsw i32 %152, %153
  %155 = sext i32 %154 to i64
  %156 = getelementptr inbounds [256 x i8], [256 x i8]* %2, i64 0, i64 %155
  %157 = load i8, i8* %156, align 1
  %158 = load i32, i32* %8, align 4
  %159 = sext i32 %158 to i64
  %160 = getelementptr inbounds [256 x i8], [256 x i8]* %2, i64 0, i64 %159
  store i8 %157, i8* %160, align 1
  br label %161

161:                                              ; preds = %149
  %162 = load i32, i32* %8, align 4
  %163 = add nsw i32 %162, 1
  store i32 %163, i32* %8, align 4
  br label %138

164:                                              ; preds = %138
  %165 = load i32, i32* %8, align 4
  %166 = add nsw i32 %165, 1
  %167 = sext i32 %166 to i64
  %168 = getelementptr inbounds [256 x i8], [256 x i8]* %2, i64 0, i64 %167
  store i8 0, i8* %168, align 1
  br label %169

169:                                              ; preds = %164, %86
  store i32 0, i32* %8, align 4
  br label %170

170:                                              ; preds = %184, %169
  %171 = load i32, i32* %8, align 4
  %172 = sext i32 %171 to i64
  %173 = getelementptr inbounds [256 x i8], [256 x i8]* %2, i64 0, i64 %172
  %174 = load i8, i8* %173, align 1
  %175 = sext i8 %174 to i32
  %176 = icmp ne i32 %175, 0
  br i1 %176, label %177, label %187

177:                                              ; preds = %170
  %178 = load i32, i32* %8, align 4
  %179 = sext i32 %178 to i64
  %180 = getelementptr inbounds [256 x i8], [256 x i8]* %2, i64 0, i64 %179
  %181 = load i8, i8* %180, align 1
  %182 = sext i8 %181 to i32
  %183 = call i32 (i8*, ...) @printf(i8* getelementptr inbounds ([3 x i8], [3 x i8]* @.str.1, i64 0, i64 0), i32 %182)
  br label %184

184:                                              ; preds = %177
  %185 = load i32, i32* %8, align 4
  %186 = add nsw i32 %185, 1
  store i32 %186, i32* %8, align 4
  br label %170

187:                                              ; preds = %170
  %188 = call i32 (i8*, ...) @printf(i8* getelementptr inbounds ([2 x i8], [2 x i8]* @.str.2, i64 0, i64 0))
  %189 = call i32 @getchar()
  %190 = call i32 @getchar()
  %191 = load i32, i32* %1, align 4
  ret i32 %191
}

declare dso_local i32 @__isoc99_scanf(i8*, ...) #1

declare dso_local i32 @printf(i8*, ...) #1

declare dso_local i32 @getchar() #1


!llvm.module.flags = !{!0}
!llvm.ident = !{!1}

!0 = !{i32 1, !"wchar_size", i32 4}
!1 = !{!"clang version 10.0.0-4ubuntu1 "}
